target datalayout = "e-m:e-p270:32:32-p271:32:32-p272:64:64-i64:64-i128:128-f80:128-n8:16:32:64-S128"
target triple = "x86_64-pc-linux-gnu"

%struct.archive_write = type { %struct.archive, i32, i64, i64, ptr, i64, ptr, ptr, ptr, ptr, ptr, i32, i32, ptr, ptr, ptr, ptr, ptr, ptr, ptr, ptr, ptr, ptr, ptr, ptr, ptr, ptr }
%struct.archive = type { i32, i32, ptr, i32, ptr, i32, i32, ptr, %struct.archive_string, ptr, i32, i32, ptr, ptr, i64, i64, i64, i8, i64 }
%struct.archive_string = type { ptr, i64, i64 }

@.str.57 = private unnamed_addr constant [32 x i8] c"Can't allocate memory for Gname\00", align 1

; Function Attrs: nounwind uwtable
define internal i32 @get_entry_gname(ptr noundef %0, ptr noundef %1, ptr noundef %2, ptr noundef %3, ptr noundef %4) #0 {
  %6 = alloca i32, align 4
  %7 = alloca ptr, align 8
  %8 = alloca ptr, align 8
  %9 = alloca ptr, align 8
  %10 = alloca ptr, align 8
  %11 = alloca ptr, align 8
  %12 = alloca i32, align 4
  store ptr %0, ptr %7, align 8
  store ptr %1, ptr %8, align 8
  store ptr %2, ptr %9, align 8
  store ptr %3, ptr %10, align 8
  store ptr %4, ptr %11, align 8
  %13 = load ptr, ptr %8, align 8
  %14 = load ptr, ptr %9, align 8
  %15 = load ptr, ptr %10, align 8
  %16 = load ptr, ptr %11, align 8
  %17 = call i32 @_archive_entry_gname_l(ptr noundef %13, ptr noundef %14, ptr noundef %15, ptr noundef %16)
  store i32 %17, ptr %12, align 4
  %18 = load i32, ptr %12, align 4
  %19 = icmp ne i32 %18, 0
  br i1 %19, label %20, label %28

20:                                               ; preds = %5
  %21 = call ptr @__errno_location() #12
  %22 = load i32, ptr %21, align 4
  %23 = icmp eq i32 %22, 12
  br i1 %23, label %24, label %27

24:                                               ; preds = %20
  %25 = load ptr, ptr %7, align 8
  %26 = getelementptr inbounds %struct.archive_write, ptr %25, i32 0, i32 0
  call void (ptr, i32, ptr, ...) @archive_set_error(ptr noundef %26, i32 noundef 12, ptr noundef @.str.57)
  store i32 -30, ptr %6, align 4
  br label %29

27:                                               ; preds = %20
  store i32 -20, ptr %6, align 4
  br label %29

28:                                               ; preds = %5
  store i32 0, ptr %6, align 4
  br label %29

29:                                               ; preds = %28, %27, %24
  %30 = load i32, ptr %6, align 4
  ret i32 %30
}